(lp0
ccopy_reg
_reconstructor
p1
(c__main__
aPaper
p2
c__builtin__
object
p3
Ntp4
Rp5
(dp6
S'citationsByMonth'
p7
(lp8
sS'doi'
p9
S'10.3847/2041-8205/830/1/L16'
p10
sS'title'
p11
S'Misaligned Disks In The Binar'
p12
sS'nCitations'
p13
I0
sS'identifier'
p14
S'2016ApJ...830L..16B'
p15
sS'pubYear'
p16
F2016.75
sbag1
(g2
g3
Ntp17
Rp18
(dp19
g7
(lp20
F2016.75
asg9
S'10.1051/0004-6361/201527310'
p21
sg11
S'A Young Bipolar Outflow From '
p22
sg13
I1
sg14
S'2016A&A...587A.145B'
p23
sg16
F2016.1666666666667
sbag1
(g2
g3
Ntp24
Rp25
(dp26
g7
(lp27
F2016.6666666666667
aF2016.6666666666667
aF2016.5
aF2015.8333333333333
asg9
S'10.1093/mnras/stw162'
p28
sg11
S'Simulator Of Galaxy Millimetr'
p29
sg13
I4
sg14
S'2016MNRAS.457.3306O'
p30
sg16
F2016.25
sbag1
(g2
g3
Ntp31
Rp32
(dp33
g7
(lp34
F2016.75
aF2016.6666666666667
aF2016.6666666666667
aF2016.6666666666667
aF2016.6666666666667
aF2016.5
aF2016.4166666666667
aF2016.1666666666667
aF2016.1666666666667
aF2016.0
aF2015.8333333333333
asg9
S'10.1088/0004-637x/814/1/76'
p35
sg11
S'Simulator Of Galaxy Millimete'
p36
sg13
I11
sg14
S'2015ApJ...814...76O'
p37
sg16
F2015.8333333333333
sbag1
(g2
g3
Ntp38
Rp39
(dp40
g7
(lp41
F2016.5
aF2016.4166666666667
aF2015.5833333333333
aF2015.4166666666667
aF2015.4166666666667
asg9
S'10.1088/0004-637x/790/1/55'
p42
sg11
S'Dynamical Structure Of The In'
p43
sg13
I5
sg14
S'2014ApJ...790...55F'
p44
sg16
F2014.5
sbag1
(g2
g3
Ntp45
Rp46
(dp47
g7
(lp48
F2016.75
aF2016.5
aF2016.3333333333333
aF2016.1666666666667
aF2016.0833333333333
aF2016.0833333333333
aF2015.9166666666667
aF2015.75
aF2015.4166666666667
aF2015.0
aF2014.9166666666667
aF2014.9166666666667
aF2014.8333333333333
aF2014.8333333333333
aF2014.75
aF2014.75
aF2014.75
asg9
S'10.1051/0004-6361/201322651'
p49
sg11
S'Alma Observations Of The Kine'
p50
sg13
I17
sg14
S'2014A&A...566A..74L'
p51
sg16
F2014.4166666666667
sbag1
(g2
g3
Ntp52
Rp53
(dp54
g7
(lp55
sg9
S'10.1093/mnras/stu524'
p56
sg11
S'Interferometer Predictions Wi'
p57
sg13
I0
sg14
S'2014MNRAS.440.3285B'
p58
sg16
F2014.4166666666667
sbag1
(g2
g3
Ntp59
Rp60
(dp61
g7
(lp62
F2014.6666666666667
asg9
S'10.1051/0004-6361/201424789'
p63
sg11
S'Resolving The Shocked Gas In '
p64
sg13
I1
sg14
S'2014A&A...571A..90B'
p65
sg16
F2014.8333333333333
sbag1
(g2
g3
Ntp66
Rp67
(dp68
g7
(lp69
F2016.75
aF2016.75
aF2016.0833333333333
aF2015.75
aF2015.3333333333333
aF2015.0833333333333
aF2014.4166666666667
aF2014.0833333333333
asg9
S'10.1051/0004-6361/201322463'
p70
sg11
S'Interplay Between Chemistry A'
p71
sg13
I8
sg14
S'2013A&A...559A..82B'
p72
sg16
F2013.8333333333333
sbag1
(g2
g3
Ntp73
Rp74
(dp75
g7
(lp76
F2016.3333333333333
aF2015.9166666666667
aF2014.4166666666667
aF2014.0
aF2014.0
aF2013.8333333333333
aF2013.75
asg9
S'10.1051/0004-6361/201118719'
p77
sg11
S'Dimethyl Ether In Its Ground '
p78
sg13
I7
sg14
S'2013A&A...552A.122B'
p79
sg16
F2013.25
sbag1
(g2
g3
Ntp80
Rp81
(dp82
g7
(lp83
F2016.75
aF2016.5
aF2016.4166666666667
aF2016.4166666666667
aF2016.3333333333333
aF2016.25
aF2016.1666666666667
aF2016.0833333333333
aF2016.0833333333333
aF2015.5
aF2015.3333333333333
aF2015.25
aF2014.8333333333333
aF2014.6666666666667
asg9
S'10.1088/2041-8205/779/2/l22'
p84
sg11
S'A Recent Accretion Burst In T'
p85
sg13
I14
sg14
S'2013ApJ...779L..22J'
p86
sg16
F2013.9166666666667
sbag1
(g2
g3
Ntp87
Rp88
(dp89
g7
(lp90
F2017.0
aF2016.9166666666667
aF2016.6666666666667
aF2016.6666666666667
aF2016.5
aF2015.5833333333333
aF2015.5
aF2015.25
aF2015.0
aF2015.0
aF2014.6666666666667
aF2014.5
aF2014.0833333333333
aF2014.0
aF2014.0
aF2013.6666666666667
aF2013.5
aF2013.5
aF2013.25
aF2012.9166666666667
asg9
S'10.1051/0004-6361/201219028'
p91
sg11
S'Adaptable Radiative Transfer '
p92
sg13
I20
sg14
S'2012A&A...543A..16P'
p93
sg16
F2012.5
sbag1
(g2
g3
Ntp94
Rp95
(dp96
g7
(lp97
F2016.6666666666667
aF2016.6666666666667
aF2016.4166666666667
aF2016.4166666666667
aF2016.3333333333333
aF2016.0
aF2015.9166666666667
aF2015.6666666666667
aF2015.5833333333333
aF2015.5833333333333
aF2015.4166666666667
aF2015.25
aF2015.25
aF2015.1666666666667
aF2015.1666666666667
aF2014.9166666666667
aF2014.9166666666667
aF2014.75
aF2014.75
aF2014.6666666666667
aF2014.6666666666667
aF2014.5833333333333
aF2014.1666666666667
aF2014.1666666666667
aF2014.0833333333333
aF2014.0
aF2014.0
aF2013.8333333333333
aF2013.0
aF2013.75
aF2013.75
aF2013.6666666666667
aF2013.6666666666667
aF2013.5833333333333
aF2013.5833333333333
aF2013.5
aF2013.4166666666667
aF2013.0
aF2013.3333333333333
aF2013.3333333333333
aF2013.25
aF2013.25
aF2013.1666666666667
aF2013.1666666666667
aF2013.0833333333333
aF2013.0833333333333
aF2013.0
aF2012.9166666666667
aF2012.75
aF2012.4166666666667
aF2012.4166666666667
aF2012.4166666666667
aF2012.4166666666667
aF2012.25
aF2012.25
aF2012.25
aF2012.1666666666667
asg9
S'10.1051/0004-6361/201117109'
p98
sg11
S'Modelling Herschel Observatio'
p99
sg13
I57
sg14
S'2012A&A...537A..55V'
p100
sg16
F2012.0
sbag1
(g2
g3
Ntp101
Rp102
(dp103
g7
(lp104
F2016.8333333333333
aF2016.75
aF2016.75
aF2016.6666666666667
aF2016.5833333333333
aF2016.5833333333333
aF2016.4166666666667
aF2016.0
aF2016.3333333333333
aF2016.3333333333333
aF2016.0833333333333
aF2016.0
aF2016.0
aF2015.9166666666667
aF2015.9166666666667
aF2015.9166666666667
aF2015.75
aF2015.6666666666667
aF2015.0
aF2015.6666666666667
aF2015.6666666666667
aF2015.5
aF2015.4166666666667
aF2015.3333333333333
aF2015.25
aF2015.25
aF2015.25
aF2015.25
aF2015.1666666666667
aF2015.1666666666667
aF2015.0833333333333
aF2015.0833333333333
aF2015.0833333333333
aF2015.0
aF2015.0
aF2015.0
aF2014.9166666666667
aF2014.9166666666667
aF2014.9166666666667
aF2014.9166666666667
aF2014.0
aF2014.9166666666667
aF2014.8333333333333
aF2014.6666666666667
aF2014.6666666666667
aF2014.5833333333333
aF2014.4166666666667
aF2014.0
aF2014.25
aF2014.1666666666667
aF2014.1666666666667
aF2014.1666666666667
aF2014.0833333333333
aF2014.0
aF2014.0
aF2014.0
aF2014.0
aF2014.0
aF2014.0
aF2014.0
aF2013.9166666666667
aF2013.9166666666667
aF2013.8333333333333
aF2013.75
aF2013.0
aF2013.0
aF2013.5833333333333
aF2013.5
aF2013.25
aF2013.25
aF2013.25
aF2013.1666666666667
aF2013.1666666666667
aF2013.1666666666667
aF2013.1666666666667
aF2013.1666666666667
aF2013.0833333333333
aF2013.0
aF2013.0
aF2013.0
aF2012.9166666666667
aF2012.8333333333333
aF2012.8333333333333
aF2012.8333333333333
aF2012.8333333333333
aF2012.75
aF2012.6666666666667
aF2012.5833333333333
aF2012.5833333333333
aF2012.5
aF2012.5
aF2012.4166666666667
aF2012.4166666666667
aF2012.3333333333333
aF2012.3333333333333
aF2012.3333333333333
aF2012.25
aF2012.1666666666667
aF2012.0
aF2012.0833333333333
aF2011.75
asg9
S'10.1126/science.1208931'
p105
sg11
S'Detection Of The Water Reserv'
p106
sg13
I101
sg14
S'2011Sci...334..338H'
p107
sg16
F2011.75
sbag1
(g2
g3
Ntp108
Rp109
(dp110
g7
(lp111
F2016.5833333333333
aF2015.4166666666667
aF2014.6666666666667
aF2014.0
aF2013.5
aF2013.0
asg9
S'10.1051/0004-6361/201015411'
p112
sg11
S'A Single-Dish Survey Of The H'
p113
sg13
I6
sg14
S'2011A&A...536A..80S'
p114
sg16
F2011.9166666666667
sbag1
(g2
g3
Ntp115
Rp116
(dp117
g7
(lp118
F2016.75
aF2016.75
aF2016.75
aF2016.75
aF2016.75
aF2016.6666666666667
aF2016.6666666666667
aF2016.6666666666667
aF2016.4166666666667
aF2016.3333333333333
aF2016.1666666666667
aF2016.1666666666667
aF2016.1666666666667
aF2016.0833333333333
aF2016.0
aF2016.0
aF2016.0
aF2015.9166666666667
aF2015.9166666666667
aF2015.8333333333333
aF2015.75
aF2015.75
aF2015.75
aF2015.0
aF2015.6666666666667
aF2015.5833333333333
aF2015.4166666666667
aF2015.4166666666667
aF2015.3333333333333
aF2015.25
aF2015.25
aF2015.25
aF2015.25
aF2015.1666666666667
aF2015.1666666666667
aF2015.0
aF2015.0
aF2015.0
aF2015.0
aF2014.9166666666667
aF2014.9166666666667
aF2014.9166666666667
aF2014.75
aF2014.75
aF2014.6666666666667
aF2014.6666666666667
aF2014.5833333333333
aF2014.5
aF2014.4166666666667
aF2014.4166666666667
aF2014.3333333333333
aF2014.25
aF2014.1666666666667
aF2014.0833333333333
aF2014.0
aF2014.0
aF2014.0
aF2013.9166666666667
aF2013.9166666666667
aF2013.9166666666667
aF2013.8333333333333
aF2013.8333333333333
aF2013.8333333333333
aF2013.75
aF2013.0
aF2013.75
aF2013.75
aF2013.75
aF2013.75
aF2013.75
aF2013.6666666666667
aF2013.6666666666667
aF2013.5833333333333
aF2013.5833333333333
aF2013.5
aF2013.4166666666667
aF2013.4166666666667
aF2013.4166666666667
aF2013.0
aF2013.3333333333333
aF2013.3333333333333
aF2013.3333333333333
aF2013.3333333333333
aF2013.25
aF2013.25
aF2013.25
aF2013.1666666666667
aF2013.1666666666667
aF2013.1666666666667
aF2013.1666666666667
aF2013.0833333333333
aF2013.0833333333333
aF2013.0833333333333
aF2013.0
aF2013.0
aF2013.0
aF2013.0
aF2013.0
aF2012.0
aF2012.9166666666667
aF2012.8333333333333
aF2012.8333333333333
aF2012.8333333333333
aF2012.75
aF2012.75
aF2012.6666666666667
aF2012.6666666666667
aF2012.5833333333333
aF2012.5
aF2012.0
aF2012.5
aF2012.4166666666667
aF2012.4166666666667
aF2012.4166666666667
aF2012.4166666666667
aF2012.4166666666667
aF2012.3333333333333
aF2012.3333333333333
aF2012.3333333333333
aF2012.3333333333333
aF2012.25
aF2012.25
aF2012.0
aF2012.0833333333333
aF2012.0
aF2012.0
aF2012.0
aF2012.0
aF2011.0
aF2011.9166666666667
aF2011.0
aF2011.0
aF2011.0
aF2011.9166666666667
aF2011.9166666666667
aF2011.0
aF2011.0
aF2011.0
aF2011.75
aF2011.75
aF2011.6666666666667
aF2011.6666666666667
aF2011.5833333333333
aF2011.5
aF2011.5
aF2011.4166666666667
asg9
S'10.1086/658676'
p119
sg11
S'Water In Star-Forming Regions'
p120
sg13
I146
sg14
S'2011PASP..123..138V'
p121
sg16
F2011.0833333333333
sbag1
(g2
g3
Ntp122
Rp123
(dp124
g7
(lp125
F2017.0
aF2016.75
aF2016.75
aF2016.75
aF2016.75
aF2016.6666666666667
aF2016.6666666666667
aF2016.6666666666667
aF2016.6666666666667
aF2016.5833333333333
aF2016.5
aF2016.5
aF2016.5
aF2016.4166666666667
aF2016.4166666666667
aF2016.4166666666667
aF2016.3333333333333
aF2016.25
aF2016.1666666666667
aF2016.1666666666667
aF2016.0833333333333
aF2016.0833333333333
aF2016.0
aF2015.9166666666667
aF2015.8333333333333
aF2015.8333333333333
aF2015.6666666666667
aF2015.6666666666667
aF2015.0
aF2015.5833333333333
aF2015.5833333333333
aF2015.5833333333333
aF2015.5
aF2015.5
aF2015.5
aF2015.25
aF2015.1666666666667
aF2015.1666666666667
aF2015.0833333333333
aF2015.0
aF2015.0
aF2014.9166666666667
aF2014.9166666666667
aF2014.8333333333333
aF2014.75
aF2014.4166666666667
aF2014.4166666666667
aF2014.25
aF2014.1666666666667
aF2014.0833333333333
aF2014.0833333333333
aF2014.0
aF2014.0
aF2013.9166666666667
aF2013.9166666666667
aF2013.8333333333333
aF2013.8333333333333
aF2013.75
aF2013.75
aF2013.6666666666667
aF2013.6666666666667
aF2013.6666666666667
aF2013.5833333333333
aF2013.5833333333333
aF2013.5
aF2013.5
aF2013.4166666666667
aF2013.3333333333333
aF2013.25
aF2013.25
aF2013.1666666666667
aF2013.0
aF2012.75
aF2012.75
aF2012.75
aF2012.5
aF2012.3333333333333
aF2012.0
aF2012.0
aF2011.0
aF2011.0
aF2011.9166666666667
aF2011.0
aF2011.75
aF2011.75
aF2011.4166666666667
aF2011.0
aF2011.0833333333333
asg9
S'10.1051/0004-6361/201015333'
p126
sg11
S'Lime \xe2\x80\x93 A Flexible, Non-Lte '
p127
sg13
I88
sg14
S'2010A&A...523A..25B'
p128
sg16
F2010.8333333333333
sbag1
(g2
g3
Ntp129
Rp130
(dp131
g7
(lp132
F2016.3333333333333
aF2016.1666666666667
aF2015.5833333333333
aF2015.5
aF2015.25
aF2015.0
aF2014.3333333333333
aF2013.75
aF2013.5833333333333
aF2013.0833333333333
aF2012.5833333333333
aF2012.4166666666667
aF2011.0
aF2011.8333333333333
aF2011.75
aF2011.3333333333333
aF2011.0833333333333
asg9
S'10.1051/0004-6361/201014182'
p133
sg11
S'Methanol Maps Of Low-Mass Pro'
p134
sg13
I17
sg14
S'2010A&A...516A..57K'
p135
sg16
F2010.4166666666667
sbag1
(g2
g3
Ntp136
Rp137
(dp138
g7
(lp139
F2016.8333333333333
aF2016.75
aF2016.6666666666667
aF2016.6666666666667
aF2016.5
aF2016.4166666666667
aF2016.1666666666667
aF2016.0833333333333
aF2016.0
aF2015.9166666666667
aF2015.5
aF2015.4166666666667
aF2015.4166666666667
aF2015.25
aF2015.25
aF2015.1666666666667
aF2015.1666666666667
aF2015.1666666666667
aF2014.9166666666667
aF2014.75
aF2014.3333333333333
aF2014.0833333333333
aF2014.0
aF2013.9166666666667
aF2013.8333333333333
aF2013.8333333333333
aF2013.0
aF2013.75
aF2013.75
aF2013.75
aF2013.75
aF2013.6666666666667
aF2013.6666666666667
aF2013.6666666666667
aF2013.5833333333333
aF2013.5833333333333
aF2013.5833333333333
aF2013.5
aF2013.5
aF2013.4166666666667
aF2013.0
aF2013.3333333333333
aF2013.3333333333333
aF2013.25
aF2013.25
aF2013.0833333333333
aF2013.0833333333333
aF2013.0
aF2012.0
aF2012.9166666666667
aF2012.75
aF2012.6666666666667
aF2012.5833333333333
aF2012.4166666666667
aF2012.4166666666667
aF2012.4166666666667
aF2012.4166666666667
aF2012.4166666666667
aF2012.25
aF2012.25
aF2012.1666666666667
aF2012.0833333333333
aF2012.0
aF2011.0
aF2011.9166666666667
aF2011.0
aF2011.0
aF2011.0
aF2011.6666666666667
aF2011.5
aF2011.5
aF2011.5
aF2011.4166666666667
aF2011.0
aF2011.0833333333333
aF2010.75
aF2010.75
aF2010.75
aF2010.5
aF2010.5
asg9
S'10.1051/0004-6361/201014615'
p140
sg11
S'Origin Of The Hot Gas In Low-'
p141
sg13
I80
sg14
S'2010A&A...518L.121V'
p142
sg16
F2010.5
sbag1
(g2
g3
Ntp143
Rp144
(dp145
g7
(lp146
F2016.8333333333333
aF2016.75
aF2016.4166666666667
aF2016.0
aF2015.75
aF2015.5
aF2015.1666666666667
aF2015.0833333333333
aF2015.0
aF2014.9166666666667
aF2014.0
aF2014.6666666666667
aF2014.4166666666667
aF2014.25
aF2014.1666666666667
aF2014.0833333333333
aF2014.0
aF2014.0
aF2014.0
aF2014.0
aF2013.0
aF2013.5
aF2013.25
aF2013.1666666666667
aF2013.1666666666667
aF2013.1666666666667
aF2012.4166666666667
aF2012.4166666666667
aF2012.3333333333333
aF2012.25
aF2012.1666666666667
aF2012.0833333333333
aF2011.9166666666667
aF2011.9166666666667
aF2011.8333333333333
aF2011.75
aF2011.75
aF2011.75
aF2011.6666666666667
aF2011.4166666666667
aF2011.4166666666667
aF2011.0833333333333
aF2011.0833333333333
aF2010.9166666666667
aF2010.8333333333333
asg9
S'10.1051/0004-6361/201015104'
p147
sg11
S'Sensitive Limits On The Abund'
p148
sg13
I45
sg14
S'2010A&A...521L..33B'
p149
sg16
F2010.75
sbag1
(g2
g3
Ntp150
Rp151
(dp152
g7
(lp153
F2016.6666666666667
aF2016.6666666666667
aF2016.1666666666667
aF2016.1666666666667
aF2016.0
aF2016.0
aF2015.25
aF2015.25
aF2014.9166666666667
aF2014.9166666666667
aF2014.9166666666667
aF2014.9166666666667
aF2014.75
aF2014.6666666666667
aF2014.5833333333333
aF2014.3333333333333
aF2014.25
aF2014.1666666666667
aF2014.1666666666667
aF2013.9166666666667
aF2013.75
aF2013.75
aF2013.75
aF2013.6666666666667
aF2013.4166666666667
aF2013.0
aF2013.3333333333333
aF2013.3333333333333
aF2013.3333333333333
aF2013.25
aF2013.1666666666667
aF2013.1666666666667
aF2013.0833333333333
aF2013.0833333333333
aF2012.75
aF2012.6666666666667
aF2012.5833333333333
aF2012.4166666666667
aF2012.4166666666667
aF2012.4166666666667
aF2012.4166666666667
aF2012.4166666666667
aF2012.3333333333333
aF2012.3333333333333
aF2012.25
aF2012.1666666666667
aF2012.0833333333333
aF2012.0
aF2012.0
aF2012.0
aF2011.0
aF2011.9166666666667
aF2011.0
aF2011.0
aF2011.0
aF2011.0
aF2011.5
aF2011.5
aF2011.4166666666667
aF2011.1666666666667
aF2011.0833333333333
aF2010.9166666666667
aF2010.8333333333333
aF2010.75
aF2010.75
aF2010.75
aF2010.75
asg9
S'10.1051/0004-6361/201015100'
p154
sg11
S'Water In Low-Mass Star-Formin'
p155
sg13
I67
sg14
S'2010A&A...521L..30K'
p156
sg16
F2010.75
sbag1
(g2
g3
Ntp157
Rp158
(dp159
g7
(lp160
F2016.3333333333333
aF2015.75
aF2015.75
aF2015.75
aF2015.0833333333333
aF2015.0
aF2014.9166666666667
aF2014.9166666666667
aF2014.8333333333333
aF2014.5
aF2014.4166666666667
aF2014.1666666666667
aF2014.0
aF2014.0
aF2013.75
aF2013.75
aF2013.5
aF2012.5
aF2012.3333333333333
aF2011.0
aF2011.0
aF2011.8333333333333
aF2011.6666666666667
aF2011.3333333333333
aF2011.1666666666667
aF2010.0833333333333
aF2009.8333333333333
asg9
S'10.1051/0004-6361/200810831'
p161
sg11
S'The Kinematics Of Ngc 1333-Ir'
p162
sg13
I27
sg14
S'2009A&A...502..199B'
p163
sg16
F2009.5
sbag1
(g2
g3
Ntp164
Rp165
(dp166
g7
(lp167
F2016.3333333333333
aF2016.0
aF2015.5833333333333
aF2015.5
aF2014.8333333333333
aF2014.0
aF2013.6666666666667
aF2013.5
aF2013.4166666666667
aF2013.1666666666667
aF2012.75
aF2012.5
aF2011.0
aF2011.75
aF2010.75
aF2010.1666666666667
aF2009.9166666666667
asg9
S'10.1051/0004-6361/200811471'
p168
sg11
S'Modeling The Chemical Evoluti'
p169
sg13
I17
sg14
S'2009A&A...497..773V'
p170
sg16
F2009.25
sbag1
(g2
g3
Ntp171
Rp172
(dp173
g7
(lp174
F2016.0833333333333
aF2015.3333333333333
aF2014.0833333333333
aF2014.0833333333333
aF2013.5
aF2013.3333333333333
aF2011.0
aF2011.75
aF2011.0
aF2010.6666666666667
aF2009.5
aF2009.25
aF2008.75
asg9
S'10.1051/0004-6361:200810034'
p175
sg11
S'Characterizing The Velocity F'
p176
sg13
I13
sg14
S'2008A&A...489..607B'
p177
sg16
F2008.75
sbag1
(g2
g3
Ntp178
Rp179
(dp180
g7
(lp181
F2014.8333333333333
aF2014.0
aF2013.25
aF2010.6666666666667
aF2010.5
aF2010.1666666666667
aF2009.25
aF2009.1666666666667
aF2008.75
asg9
S'10.1051/0004-6361:200810035'
p182
sg11
S'Time-Dependent Co Depletion D'
p183
sg13
I9
sg14
S'2008A&A...489..617B'
p184
sg16
F2008.75
sbag1
(g2
g3
Ntp185
Rp186
(dp187
g7
(lp188
F2016.75
aF2016.25
aF2016.25
aF2016.1666666666667
aF2014.9166666666667
aF2014.6666666666667
aF2013.4166666666667
aF2012.5833333333333
aF2011.9166666666667
aF2011.9166666666667
aF2010.6666666666667
aF2010.0833333333333
aF2009.5
aF2008.9166666666667
aF2008.75
aF2007.4166666666667
aF2007.0
asg9
S'10.1051/0004-6361:20065174'
p189
sg11
S'Searching For Gas-Rich Disks '
p190
sg13
I17
sg14
S'2007A&A...461..983V'
p191
sg16
F2007.0
sbag1
(g2
g3
Ntp192
Rp193
(dp194
g7
(lp195
F2016.1666666666667
aF2016.0833333333333
aF2016.0
aF2015.3333333333333
aF2014.6666666666667
aF2014.0
aF2013.8333333333333
aF2013.5
aF2013.4166666666667
aF2012.5833333333333
aF2012.5833333333333
aF2011.8333333333333
aF2011.5
aF2011.0833333333333
aF2010.9166666666667
aF2010.4166666666667
aF2010.4166666666667
aF2009.5
aF2009.5
aF2008.9166666666667
aF2008.75
aF2008.75
aF2008.4166666666667
aF2007.9166666666667
aF2007.8333333333333
aF2007.0833333333333
asg9
S'10.1051/0004-6361:20065473'
p196
sg11
S'Structure And Dynamics Of The'
p197
sg13
I26
sg14
S'2007A&A...461.1037B'
p198
sg16
F2007.0
sbag1
(g2
g3
Ntp199
Rp200
(dp201
g7
(lp202
F2016.3333333333333
aF2016.25
aF2016.0833333333333
aF2016.0
aF2015.8333333333333
aF2015.0833333333333
aF2014.8333333333333
aF2014.8333333333333
aF2014.75
aF2014.6666666666667
aF2014.4166666666667
aF2014.0833333333333
aF2014.0833333333333
aF2014.0
aF2013.9166666666667
aF2013.9166666666667
aF2013.8333333333333
aF2013.75
aF2013.0
aF2013.5833333333333
aF2013.5
aF2013.5
aF2013.5
aF2013.0
aF2012.5833333333333
aF2012.5
aF2012.4166666666667
aF2012.1666666666667
aF2011.0
aF2011.75
aF2011.6666666666667
aF2011.6666666666667
aF2011.5833333333333
aF2011.3333333333333
aF2010.5
aF2010.4166666666667
aF2009.9166666666667
aF2009.8333333333333
aF2008.4166666666667
asg9
S'10.1051/0004-6361:20078249'
p203
sg11
S'A Deeply Embedded Young Proto'
p204
sg13
I39
sg14
S'2007A&A...475..915B'
p205
sg16
F2007.9166666666667
sba.